target datalayout = "e-m:e-p270:32:32-p271:32:32-p272:64:64-i64:64-i128:128-f80:128-n8:16:32:64-S128"
target triple = "x86_64-unknown-linux-gnu"

%struct.sockaddr_in = type { i16, i16, %struct.in_addr, [8 x i8] }
%struct.in_addr = type { i32 }
%struct.NetSocketState = type { %struct.NetClientState, i32, i32, %struct.SocketReadState, i32, %struct.sockaddr_in, ptr, i8, i8 }
%struct.NetClientState = type { ptr, i32, %union.anon.1, ptr, ptr, ptr, ptr, [256 x i8], i8, ptr, i32, i8, i32, i32, i8, i8, i8, %union.anon.2 }
%union.anon.1 = type { %struct.QTailQLink }
%struct.QTailQLink = type { ptr, ptr }
%union.anon.2 = type { %struct.QTailQLink }
%struct.SocketReadState = type { i32, i8, i32, i32, i32, [69632 x i8], ptr }

; Function Attrs: nounwind sspstrong uwtable
define internal void @net_socket_update_fd_handler(ptr noundef %s) #0 {
entry:
  %s.addr = alloca ptr, align 8
  store ptr %s, ptr %s.addr, align 8
  %0 = load ptr, ptr %s.addr, align 8
  %fd = getelementptr inbounds %struct.NetSocketState, ptr %0, i32 0, i32 2
  %1 = load i32, ptr %fd, align 4
  %2 = load ptr, ptr %s.addr, align 8
  %read_poll = getelementptr inbounds %struct.NetSocketState, ptr %2, i32 0, i32 7
  %3 = load i8, ptr %read_poll, align 8
  %tobool = trunc i8 %3 to i1
  br i1 %tobool, label %cond.true, label %cond.false

cond.true:                                        ; preds = %entry
  %4 = load ptr, ptr %s.addr, align 8
  %send_fn = getelementptr inbounds %struct.NetSocketState, ptr %4, i32 0, i32 6
  %5 = load ptr, ptr %send_fn, align 8
  br label %cond.end

cond.false:                                       ; preds = %entry
  br label %cond.end

cond.end:                                         ; preds = %cond.false, %cond.true
  %cond = phi ptr [ %5, %cond.true ], [ null, %cond.false ]
  %6 = load ptr, ptr %s.addr, align 8
  %write_poll = getelementptr inbounds %struct.NetSocketState, ptr %6, i32 0, i32 8
  %7 = load i8, ptr %write_poll, align 1
  %tobool1 = trunc i8 %7 to i1
  %cond2 = select i1 %tobool1, ptr @net_socket_writable, ptr null
  %8 = load ptr, ptr %s.addr, align 8
  call void @qemu_set_fd_handler(i32 noundef %1, ptr noundef %cond, ptr noundef %cond2, ptr noundef %8)
  ret void
}

; Function Attrs: nounwind sspstrong uwtable
define internal void @net_socket_read_poll(ptr noundef %s, i1 noundef zeroext %enable) #0 {
entry:
  %s.addr = alloca ptr, align 8
  %enable.addr = alloca i8, align 1
  store ptr %s, ptr %s.addr, align 8
  %frombool = zext i1 %enable to i8
  store i8 %frombool, ptr %enable.addr, align 1
  %0 = load i8, ptr %enable.addr, align 1
  %tobool = trunc i8 %0 to i1
  %1 = load ptr, ptr %s.addr, align 8
  %read_poll = getelementptr inbounds %struct.NetSocketState, ptr %1, i32 0, i32 7
  %frombool1 = zext i1 %tobool to i8
  store i8 %frombool1, ptr %read_poll, align 8
  %2 = load ptr, ptr %s.addr, align 8
  call void @net_socket_update_fd_handler(ptr noundef %2)
  ret void
}

; Function Attrs: nounwind sspstrong uwtable
define internal void @net_socket_send_completed(ptr noundef %nc, i64 noundef %len) #0 {
entry:
  %nc.addr = alloca ptr, align 8
  %len.addr = alloca i64, align 8
  %s = alloca ptr, align 8
  %tmp = alloca ptr, align 8
  %__mptr = alloca ptr, align 8
  %tmp1 = alloca ptr, align 8
  store ptr %nc, ptr %nc.addr, align 8
  store i64 %len, ptr %len.addr, align 8
  %0 = load ptr, ptr %nc.addr, align 8
  store ptr %0, ptr %__mptr, align 8
  %1 = load ptr, ptr %__mptr, align 8
  %add.ptr = getelementptr i8, ptr %1, i64 0
  store ptr %add.ptr, ptr %tmp1, align 8
  %2 = load ptr, ptr %tmp1, align 8
  store ptr %2, ptr %tmp, align 8
  %3 = load ptr, ptr %tmp, align 8
  store ptr %3, ptr %s, align 8
  %4 = load ptr, ptr %s, align 8
  %read_poll = getelementptr inbounds %struct.NetSocketState, ptr %4, i32 0, i32 7
  %5 = load i8, ptr %read_poll, align 8
  %tobool = trunc i8 %5 to i1
  br i1 %tobool, label %if.end, label %if.then

if.then:                                          ; preds = %entry
  %6 = load ptr, ptr %s, align 8
  call void @net_socket_read_poll(ptr noundef %6, i1 noundef zeroext true)
  br label %if.end

if.end:                                           ; preds = %if.then, %entry
  ret void
}