; Function Attrs: nounwind sspstrong uwtable
define internal void @net_socket_send_completed(ptr noundef %nc, i64 %len) #0 {
entry:
  %read_poll = getelementptr inbounds nuw i8, ptr %nc, i64 70080
  %0 = load i8, ptr %read_poll, align 8
  %tobool = trunc i8 %0 to i1
  br i1 %tobool, label %if.end, label %if.then

if.then:                                          ; preds = %entry
  store i8 1, ptr %read_poll, align 8
  %fd.i.i = getelementptr inbounds nuw i8, ptr %nc, i64 380
  %1 = load i32, ptr %fd.i.i, align 4
  %send_fn.i.i = getelementptr inbounds nuw i8, ptr %nc, i64 70072
  %2 = load ptr, ptr %send_fn.i.i, align 8
  %write_poll.i.i = getelementptr inbounds nuw i8, ptr %nc, i64 70081
  %3 = load i8, ptr %write_poll.i.i, align 1
  %tobool1.i.i = trunc i8 %3 to i1
  %cond2.i.i = select i1 %tobool1.i.i, ptr @net_socket_writable, ptr null
  tail call void @qemu_set_fd_handler(i32 noundef %1, ptr noundef %2, ptr noundef %cond2.i.i, ptr noundef nonnull %nc) #8
  br label %if.end

if.end:                                           ; preds = %if.then, %entry
  ret void
}